target datalayout = "e-m:e-p270:32:32-p271:32:32-p272:64:64-i64:64-i128:128-f80:128-n8:16:32:64-S128"
target triple = "x86_64-unknown-linux-gnu"

%struct.aiColor3D = type { float, float, float }
%"class.Assimp::Discreet3DSImporter" = type <{ %"class.Assimp::BaseImporter", ptr, i16, [6 x i8], ptr, ptr, ptr, %struct.aiColor3D, float, %"class.std::__cxx11::basic_string", i8, i8, [6 x i8] }>
%"class.Assimp::BaseImporter" = type { ptr, double, double, %"class.std::__cxx11::basic_string", %"class.std::__exception_ptr::exception_ptr", ptr }
%"class.std::__exception_ptr::exception_ptr" = type { ptr }
%"class.std::__cxx11::basic_string" = type { %"struct.std::__cxx11::basic_string<char>::_Alloc_hider", i64, %union.anon }
%"struct.std::__cxx11::basic_string<char>::_Alloc_hider" = type { ptr }
%union.anon = type { i64, [8 x i8] }
%"class.Assimp::StreamReader" = type <{ %"class.std::shared_ptr", ptr, ptr, ptr, ptr, i8, [7 x i8] }>
%"class.std::shared_ptr" = type { %"class.std::__shared_ptr" }
%"class.std::__shared_ptr" = type { ptr, %"class.std::__shared_count" }
%"class.std::__shared_count" = type { ptr }
%"struct.Assimp::D3DS::Discreet3DS::Chunk" = type <{ i16, i32 }>

@_ZTI17DeadlyImportError = linkonce_odr constant { ptr, ptr, ptr } { ptr getelementptr inbounds (ptr, ptr @_ZTVN10__cxxabiv120__si_class_type_infoE, i64 2), ptr @_ZTS17DeadlyImportError, ptr @_ZTI15DeadlyErrorBase }, comdat, align 8
@.str.39 = private unnamed_addr constant [33 x i8] c"StreamReader: Invalid read limit\00", align 1

; Function Attrs: mustprogress nounwind uwtable
define linkonce_odr hidden noundef i32 @_ZNK6Assimp12StreamReaderILb0ELb0EE12GetReadLimitEv(ptr noundef nonnull align 8 dereferenceable(49) %this) #0 comdat align 2 {
entry:
  %this.addr = alloca ptr, align 8
  store ptr %this, ptr %this.addr, align 8
  %this1 = load ptr, ptr %this.addr, align 8
  %mLimit = getelementptr inbounds %"class.Assimp::StreamReader", ptr %this1, i32 0, i32 4
  %0 = load ptr, ptr %mLimit, align 8
  %mBuffer = getelementptr inbounds %"class.Assimp::StreamReader", ptr %this1, i32 0, i32 1
  %1 = load ptr, ptr %mBuffer, align 8
  %sub.ptr.lhs.cast = ptrtoint ptr %0 to i64
  %sub.ptr.rhs.cast = ptrtoint ptr %1 to i64
  %sub.ptr.sub = sub i64 %sub.ptr.lhs.cast, %sub.ptr.rhs.cast
  %conv = trunc i64 %sub.ptr.sub to i32
  ret i32 %conv
}

; Function Attrs: mustprogress nounwind uwtable
define linkonce_odr hidden void @_ZN6Assimp12StreamReaderILb0ELb0EE15SkipToReadLimitEv(ptr noundef nonnull align 8 dereferenceable(49) %this) #0 comdat align 2 {
entry:
  %this.addr = alloca ptr, align 8
  store ptr %this, ptr %this.addr, align 8
  %this1 = load ptr, ptr %this.addr, align 8
  %mLimit = getelementptr inbounds %"class.Assimp::StreamReader", ptr %this1, i32 0, i32 4
  %0 = load ptr, ptr %mLimit, align 8
  %mCurrent = getelementptr inbounds %"class.Assimp::StreamReader", ptr %this1, i32 0, i32 2
  store ptr %0, ptr %mCurrent, align 8
  ret void
}

; Function Attrs: mustprogress uwtable
define linkonce_odr hidden noundef i32 @_ZN6Assimp12StreamReaderILb0ELb0EE12SetReadLimitEj(ptr noundef nonnull align 8 dereferenceable(49) %this, i32 noundef %_limit) #3 comdat align 2 personality ptr @__gxx_personality_v0 {
entry:
  %retval = alloca i32, align 4
  %this.addr = alloca ptr, align 8
  %_limit.addr = alloca i32, align 4
  %prev = alloca i32, align 4
  %exn.slot = alloca ptr, align 8
  %ehselector.slot = alloca i32, align 4
  store ptr %this, ptr %this.addr, align 8
  store i32 %_limit, ptr %_limit.addr, align 4
  %this1 = load ptr, ptr %this.addr, align 8
  %call = call noundef i32 @_ZNK6Assimp12StreamReaderILb0ELb0EE12GetReadLimitEv(ptr noundef nonnull align 8 dereferenceable(49) %this1)
  store i32 %call, ptr %prev, align 4
  %0 = load i32, ptr %_limit.addr, align 4
  %cmp = icmp eq i32 -1, %0
  br i1 %cmp, label %if.then, label %if.end

if.then:                                          ; preds = %entry
  %mEnd = getelementptr inbounds %"class.Assimp::StreamReader", ptr %this1, i32 0, i32 3
  %1 = load ptr, ptr %mEnd, align 8
  %mLimit = getelementptr inbounds %"class.Assimp::StreamReader", ptr %this1, i32 0, i32 4
  store ptr %1, ptr %mLimit, align 8
  %2 = load i32, ptr %prev, align 4
  store i32 %2, ptr %retval, align 4
  br label %return

if.end:                                           ; preds = %entry
  %mBuffer = getelementptr inbounds %"class.Assimp::StreamReader", ptr %this1, i32 0, i32 1
  %3 = load ptr, ptr %mBuffer, align 8
  %4 = load i32, ptr %_limit.addr, align 4
  %idx.ext = zext i32 %4 to i64
  %add.ptr = getelementptr inbounds i8, ptr %3, i64 %idx.ext
  %mLimit2 = getelementptr inbounds %"class.Assimp::StreamReader", ptr %this1, i32 0, i32 4
  store ptr %add.ptr, ptr %mLimit2, align 8
  %mLimit3 = getelementptr inbounds %"class.Assimp::StreamReader", ptr %this1, i32 0, i32 4
  %5 = load ptr, ptr %mLimit3, align 8
  %mEnd4 = getelementptr inbounds %"class.Assimp::StreamReader", ptr %this1, i32 0, i32 3
  %6 = load ptr, ptr %mEnd4, align 8
  %cmp5 = icmp ugt ptr %5, %6
  br i1 %cmp5, label %if.then6, label %if.end7

if.then6:                                         ; preds = %if.end
  %exception = call ptr @__cxa_allocate_exception(i64 16) #10
  invoke void @_ZN17DeadlyImportErrorC2EPKc(ptr noundef nonnull align 8 dereferenceable(16) %exception, ptr noundef @.str.39)
          to label %invoke.cont unwind label %lpad

invoke.cont:                                      ; preds = %if.then6
  call void @__cxa_throw(ptr %exception, ptr @_ZTI17DeadlyImportError, ptr @_ZN17DeadlyImportErrorD2Ev) #18
  unreachable

lpad:                                             ; preds = %if.then6
  %7 = landingpad { ptr, i32 }
          cleanup
  %8 = extractvalue { ptr, i32 } %7, 0
  store ptr %8, ptr %exn.slot, align 8
  %9 = extractvalue { ptr, i32 } %7, 1
  store i32 %9, ptr %ehselector.slot, align 4
  call void @__cxa_free_exception(ptr %exception) #10
  br label %eh.resume

if.end7:                                          ; preds = %if.end
  %10 = load i32, ptr %prev, align 4
  store i32 %10, ptr %retval, align 4
  br label %return

return:                                           ; preds = %if.end7, %if.then
  %11 = load i32, ptr %retval, align 4
  ret i32 %11

eh.resume:                                        ; preds = %lpad
  %exn = load ptr, ptr %exn.slot, align 8
  %sel = load i32, ptr %ehselector.slot, align 4
  %lpad.val = insertvalue { ptr, i32 } poison, ptr %exn, 0
  %lpad.val8 = insertvalue { ptr, i32 } %lpad.val, i32 %sel, 1
  resume { ptr, i32 } %lpad.val8
}

; Function Attrs: mustprogress nounwind uwtable
define linkonce_odr hidden noundef i32 @_ZNK6Assimp12StreamReaderILb0ELb0EE13GetCurrentPosEv(ptr noundef nonnull align 8 dereferenceable(49) %this) #0 comdat align 2 {
entry:
  %this.addr = alloca ptr, align 8
  store ptr %this, ptr %this.addr, align 8
  %this1 = load ptr, ptr %this.addr, align 8
  %mCurrent = getelementptr inbounds %"class.Assimp::StreamReader", ptr %this1, i32 0, i32 2
  %0 = load ptr, ptr %mCurrent, align 8
  %mBuffer = getelementptr inbounds %"class.Assimp::StreamReader", ptr %this1, i32 0, i32 1
  %1 = load ptr, ptr %mBuffer, align 8
  %sub.ptr.lhs.cast = ptrtoint ptr %0 to i64
  %sub.ptr.rhs.cast = ptrtoint ptr %1 to i64
  %sub.ptr.sub = sub i64 %sub.ptr.lhs.cast, %sub.ptr.rhs.cast
  %conv = trunc i64 %sub.ptr.sub to i32
  ret i32 %conv
}

; Function Attrs: mustprogress nounwind uwtable
define linkonce_odr hidden noundef i64 @_ZNK6Assimp12StreamReaderILb0ELb0EE23GetRemainingSizeToLimitEv(ptr noundef nonnull align 8 dereferenceable(49) %this) #0 comdat align 2 {
entry:
  %this.addr = alloca ptr, align 8
  store ptr %this, ptr %this.addr, align 8
  %this1 = load ptr, ptr %this.addr, align 8
  %mLimit = getelementptr inbounds %"class.Assimp::StreamReader", ptr %this1, i32 0, i32 4
  %0 = load ptr, ptr %mLimit, align 8
  %mCurrent = getelementptr inbounds %"class.Assimp::StreamReader", ptr %this1, i32 0, i32 2
  %1 = load ptr, ptr %mCurrent, align 8
  %sub.ptr.lhs.cast = ptrtoint ptr %0 to i64
  %sub.ptr.rhs.cast = ptrtoint ptr %1 to i64
  %sub.ptr.sub = sub i64 %sub.ptr.lhs.cast, %sub.ptr.rhs.cast
  %conv = trunc i64 %sub.ptr.sub to i32
  %conv2 = zext i32 %conv to i64
  ret i64 %conv2
}

; Function Attrs: mustprogress uwtable
define hidden void @_ZN6Assimp19Discreet3DSImporter14ParseMainChunkEv(ptr noundef nonnull align 8 dereferenceable(162) %this) #3 align 2 {
entry:
  %this.addr = alloca ptr, align 8
  %chunk = alloca %"struct.Assimp::D3DS::Discreet3DS::Chunk", align 1
  %chunkSize = alloca i32, align 4
  %oldReadLimit = alloca i32, align 4
  store ptr %this, ptr %this.addr, align 8
  %this1 = load ptr, ptr %this.addr, align 8
  br label %while.body

while.body:                                       ; preds = %if.end19, %if.then4, %entry
  %stream = getelementptr inbounds %"class.Assimp::Discreet3DSImporter", ptr %this1, i32 0, i32 1
  %0 = load ptr, ptr %stream, align 8
  %call = call noundef i64 @_ZNK6Assimp12StreamReaderILb0ELb0EE23GetRemainingSizeToLimitEv(ptr noundef nonnull align 8 dereferenceable(49) %0)
  %cmp = icmp ult i64 %call, 6
  br i1 %cmp, label %if.then, label %if.end

if.then:                                          ; preds = %while.body
  br label %return

if.end:                                           ; preds = %while.body
  call void @_ZN6Assimp19Discreet3DSImporter9ReadChunkEPNS_4D3DS11Discreet3DS5ChunkE(ptr noundef nonnull align 8 dereferenceable(162) %this1, ptr noundef %chunk)
  %Size = getelementptr inbounds %"struct.Assimp::D3DS::Discreet3DS::Chunk", ptr %chunk, i32 0, i32 1
  %1 = load i32, ptr %Size, align 1
  %conv = zext i32 %1 to i64
  %sub = sub i64 %conv, 6
  %conv2 = trunc i64 %sub to i32
  store i32 %conv2, ptr %chunkSize, align 4
  %2 = load i32, ptr %chunkSize, align 4
  %cmp3 = icmp sle i32 %2, 0
  br i1 %cmp3, label %if.then4, label %if.end5

if.then4:                                         ; preds = %if.end
  br label %while.body, !llvm.loop !4

if.end5:                                          ; preds = %if.end
  %stream6 = getelementptr inbounds %"class.Assimp::Discreet3DSImporter", ptr %this1, i32 0, i32 1
  %3 = load ptr, ptr %stream6, align 8
  %stream7 = getelementptr inbounds %"class.Assimp::Discreet3DSImporter", ptr %this1, i32 0, i32 1
  %4 = load ptr, ptr %stream7, align 8
  %call8 = call noundef i32 @_ZNK6Assimp12StreamReaderILb0ELb0EE13GetCurrentPosEv(ptr noundef nonnull align 8 dereferenceable(49) %4)
  %5 = load i32, ptr %chunkSize, align 4
  %add = add nsw i32 %call8, %5
  %call9 = call noundef i32 @_ZN6Assimp12StreamReaderILb0ELb0EE12SetReadLimitEj(ptr noundef nonnull align 8 dereferenceable(49) %3, i32 noundef %add)
  store i32 %call9, ptr %oldReadLimit, align 4
  %Flag = getelementptr inbounds %"struct.Assimp::D3DS::Discreet3DS::Chunk", ptr %chunk, i32 0, i32 0
  %6 = load i16, ptr %Flag, align 1
  %conv10 = zext i16 %6 to i32
  switch i32 %conv10, label %sw.epilog [
    i32 49725, label %sw.bb
    i32 19789, label %sw.bb11
  ]

sw.bb:                                            ; preds = %if.end5
  %bIsPrj = getelementptr inbounds %"class.Assimp::Discreet3DSImporter", ptr %this1, i32 0, i32 11
  store i8 1, ptr %bIsPrj, align 1
  br label %sw.epilog

sw.bb11:                                          ; preds = %if.end5
  call void @_ZN6Assimp19Discreet3DSImporter16ParseEditorChunkEv(ptr noundef nonnull align 8 dereferenceable(162) %this1)
  br label %sw.epilog

sw.epilog:                                        ; preds = %sw.bb11, %sw.bb, %if.end5
  %stream12 = getelementptr inbounds %"class.Assimp::Discreet3DSImporter", ptr %this1, i32 0, i32 1
  %7 = load ptr, ptr %stream12, align 8
  call void @_ZN6Assimp12StreamReaderILb0ELb0EE15SkipToReadLimitEv(ptr noundef nonnull align 8 dereferenceable(49) %7)
  %stream13 = getelementptr inbounds %"class.Assimp::Discreet3DSImporter", ptr %this1, i32 0, i32 1
  %8 = load ptr, ptr %stream13, align 8
  %9 = load i32, ptr %oldReadLimit, align 4
  %call14 = call noundef i32 @_ZN6Assimp12StreamReaderILb0ELb0EE12SetReadLimitEj(ptr noundef nonnull align 8 dereferenceable(49) %8, i32 noundef %9)
  %stream15 = getelementptr inbounds %"class.Assimp::Discreet3DSImporter", ptr %this1, i32 0, i32 1
  %10 = load ptr, ptr %stream15, align 8
  %call16 = call noundef i64 @_ZNK6Assimp12StreamReaderILb0ELb0EE23GetRemainingSizeToLimitEv(ptr noundef nonnull align 8 dereferenceable(49) %10)
  %cmp17 = icmp eq i64 %call16, 0
  br i1 %cmp17, label %if.then18, label %if.end19

if.then18:                                        ; preds = %sw.epilog
  br label %return

if.end19:                                         ; preds = %sw.epilog
  br label %while.body, !llvm.loop !4

return:                                           ; preds = %if.then18, %if.then
  ret void
}